target datalayout = "e-m:e-p270:32:32-p271:32:32-p272:64:64-i64:64-i128:128-f80:128-n8:16:32:64-S128"
target triple = "x86_64-pc-linux-gnu"

%struct.Txs_Man_t_ = type { ptr, ptr, ptr, ptr, ptr, ptr, ptr, ptr, ptr, ptr, ptr }
%struct.Vec_Int_t_ = type { i32, i32, ptr }

; Function Attrs: inlinehint nounwind uwtable
define internal ptr @Vec_IntAlloc(i32 noundef %0) #4 {
  %2 = alloca i32, align 4
  %3 = alloca ptr, align 8
  store i32 %0, ptr %2, align 4, !tbaa !27
  call void @llvm.lifetime.start.p0(i64 8, ptr %3) #8
  %4 = call noalias ptr @malloc(i64 noundef 16) #10
  store ptr %4, ptr %3, align 8, !tbaa !10
  %5 = load i32, ptr %2, align 4, !tbaa !27
  %6 = icmp sgt i32 %5, 0
  br i1 %6, label %7, label %11

7:                                                ; preds = %1
  %8 = load i32, ptr %2, align 4, !tbaa !27
  %9 = icmp slt i32 %8, 16
  br i1 %9, label %10, label %11

10:                                               ; preds = %7
  store i32 16, ptr %2, align 4, !tbaa !27
  br label %11

11:                                               ; preds = %10, %7, %1
  %12 = load ptr, ptr %3, align 8, !tbaa !10
  %13 = getelementptr inbounds nuw %struct.Vec_Int_t_, ptr %12, i32 0, i32 1
  store i32 0, ptr %13, align 4, !tbaa !29
  %14 = load i32, ptr %2, align 4, !tbaa !27
  %15 = load ptr, ptr %3, align 8, !tbaa !10
  %16 = getelementptr inbounds nuw %struct.Vec_Int_t_, ptr %15, i32 0, i32 0
  store i32 %14, ptr %16, align 8, !tbaa !32
  %17 = load ptr, ptr %3, align 8, !tbaa !10
  %18 = getelementptr inbounds nuw %struct.Vec_Int_t_, ptr %17, i32 0, i32 0
  %19 = load i32, ptr %18, align 8, !tbaa !32
  %20 = icmp ne i32 %19, 0
  br i1 %20, label %21, label %28

21:                                               ; preds = %11
  %22 = load ptr, ptr %3, align 8, !tbaa !10
  %23 = getelementptr inbounds nuw %struct.Vec_Int_t_, ptr %22, i32 0, i32 0
  %24 = load i32, ptr %23, align 8, !tbaa !32
  %25 = sext i32 %24 to i64
  %26 = mul i64 4, %25
  %27 = call noalias ptr @malloc(i64 noundef %26) #10
  br label %29

28:                                               ; preds = %11
  br label %29

29:                                               ; preds = %28, %21
  %30 = phi ptr [ %27, %21 ], [ null, %28 ]
  %31 = load ptr, ptr %3, align 8, !tbaa !10
  %32 = getelementptr inbounds nuw %struct.Vec_Int_t_, ptr %31, i32 0, i32 2
  store ptr %30, ptr %32, align 8, !tbaa !33
  %33 = load ptr, ptr %3, align 8, !tbaa !10
  call void @llvm.lifetime.end.p0(i64 8, ptr %3) #8
  ret ptr %33
}

; Function Attrs: nounwind uwtable
define ptr @Txs_ManStart(ptr noundef %0, ptr noundef %1, ptr noundef %2) #0 {
  %4 = alloca ptr, align 8
  %5 = alloca ptr, align 8
  %6 = alloca ptr, align 8
  %7 = alloca ptr, align 8
  store ptr %0, ptr %4, align 8, !tbaa !3
  store ptr %1, ptr %5, align 8, !tbaa !8
  store ptr %2, ptr %6, align 8, !tbaa !10
  call void @llvm.lifetime.start.p0(i64 8, ptr %7) #8
  %8 = call noalias ptr @calloc(i64 noundef 1, i64 noundef 88) #9
  store ptr %8, ptr %7, align 8, !tbaa !12
  %9 = load ptr, ptr %5, align 8, !tbaa !8
  %10 = call ptr @Gia_ManFromAigSimple(ptr noundef %9)
  %11 = load ptr, ptr %7, align 8, !tbaa !12
  %12 = getelementptr inbounds nuw %struct.Txs_Man_t_, ptr %11, i32 0, i32 0
  store ptr %10, ptr %12, align 8, !tbaa !14
  %13 = load ptr, ptr %6, align 8, !tbaa !10
  %14 = load ptr, ptr %7, align 8, !tbaa !12
  %15 = getelementptr inbounds nuw %struct.Txs_Man_t_, ptr %14, i32 0, i32 1
  store ptr %13, ptr %15, align 8, !tbaa !17
  %16 = call ptr @Vec_IntAlloc(i32 noundef 100)
  %17 = load ptr, ptr %7, align 8, !tbaa !12
  %18 = getelementptr inbounds nuw %struct.Txs_Man_t_, ptr %17, i32 0, i32 2
  store ptr %16, ptr %18, align 8, !tbaa !18
  %19 = call ptr @Vec_IntAlloc(i32 noundef 100)
  %20 = load ptr, ptr %7, align 8, !tbaa !12
  %21 = getelementptr inbounds nuw %struct.Txs_Man_t_, ptr %20, i32 0, i32 3
  store ptr %19, ptr %21, align 8, !tbaa !19
  %22 = call ptr @Vec_IntAlloc(i32 noundef 100)
  %23 = load ptr, ptr %7, align 8, !tbaa !12
  %24 = getelementptr inbounds nuw %struct.Txs_Man_t_, ptr %23, i32 0, i32 4
  store ptr %22, ptr %24, align 8, !tbaa !20
  %25 = call ptr @Vec_IntAlloc(i32 noundef 100)
  %26 = load ptr, ptr %7, align 8, !tbaa !12
  %27 = getelementptr inbounds nuw %struct.Txs_Man_t_, ptr %26, i32 0, i32 5
  store ptr %25, ptr %27, align 8, !tbaa !21
  %28 = call ptr @Vec_IntAlloc(i32 noundef 100)
  %29 = load ptr, ptr %7, align 8, !tbaa !12
  %30 = getelementptr inbounds nuw %struct.Txs_Man_t_, ptr %29, i32 0, i32 6
  store ptr %28, ptr %30, align 8, !tbaa !22
  %31 = call ptr @Vec_IntAlloc(i32 noundef 100)
  %32 = load ptr, ptr %7, align 8, !tbaa !12
  %33 = getelementptr inbounds nuw %struct.Txs_Man_t_, ptr %32, i32 0, i32 7
  store ptr %31, ptr %33, align 8, !tbaa !23
  %34 = call ptr @Vec_IntAlloc(i32 noundef 100)
  %35 = load ptr, ptr %7, align 8, !tbaa !12
  %36 = getelementptr inbounds nuw %struct.Txs_Man_t_, ptr %35, i32 0, i32 8
  store ptr %34, ptr %36, align 8, !tbaa !24
  %37 = call ptr @Vec_IntAlloc(i32 noundef 100)
  %38 = load ptr, ptr %7, align 8, !tbaa !12
  %39 = getelementptr inbounds nuw %struct.Txs_Man_t_, ptr %38, i32 0, i32 9
  store ptr %37, ptr %39, align 8, !tbaa !25
  %40 = load ptr, ptr %4, align 8, !tbaa !3
  %41 = load ptr, ptr %7, align 8, !tbaa !12
  %42 = getelementptr inbounds nuw %struct.Txs_Man_t_, ptr %41, i32 0, i32 10
  store ptr %40, ptr %42, align 8, !tbaa !26
  %43 = load ptr, ptr %7, align 8, !tbaa !12
  call void @llvm.lifetime.end.p0(i64 8, ptr %7) #8
  ret ptr %43
}