; Function Attrs: nounwind uwtable
define noalias noundef ptr @Txs_ManStart(ptr noundef %0, ptr noundef %1, ptr noundef %2) local_unnamed_addr #0 {
  %4 = tail call noalias dereferenceable_or_null(88) ptr @calloc(i64 noundef 1, i64 noundef 88) #13
  %5 = tail call ptr @Gia_ManFromAigSimple(ptr noundef %1) #14
  store ptr %5, ptr %4, align 8, !tbaa !3
  %6 = getelementptr inbounds nuw i8, ptr %4, i64 8
  store ptr %2, ptr %6, align 8, !tbaa !11
  %7 = tail call noalias dereferenceable_or_null(16) ptr @malloc(i64 noundef 16) #15
  %8 = getelementptr inbounds nuw i8, ptr %7, i64 4
  store i32 0, ptr %8, align 4, !tbaa !12
  store i32 100, ptr %7, align 8, !tbaa !16
  %9 = tail call noalias dereferenceable_or_null(400) ptr @malloc(i64 noundef 400) #15
  %10 = getelementptr inbounds nuw i8, ptr %7, i64 8
  store ptr %9, ptr %10, align 8, !tbaa !17
  %11 = getelementptr inbounds nuw i8, ptr %4, i64 16
  store ptr %7, ptr %11, align 8, !tbaa !18
  %12 = tail call noalias dereferenceable_or_null(16) ptr @malloc(i64 noundef 16) #15
  %13 = getelementptr inbounds nuw i8, ptr %12, i64 4
  store i32 0, ptr %13, align 4, !tbaa !12
  store i32 100, ptr %12, align 8, !tbaa !16
  %14 = tail call noalias dereferenceable_or_null(400) ptr @malloc(i64 noundef 400) #15
  %15 = getelementptr inbounds nuw i8, ptr %12, i64 8
  store ptr %14, ptr %15, align 8, !tbaa !17
  %16 = getelementptr inbounds nuw i8, ptr %4, i64 24
  store ptr %12, ptr %16, align 8, !tbaa !19
  %17 = tail call noalias dereferenceable_or_null(16) ptr @malloc(i64 noundef 16) #15
  %18 = getelementptr inbounds nuw i8, ptr %17, i64 4
  store i32 0, ptr %18, align 4, !tbaa !12
  store i32 100, ptr %17, align 8, !tbaa !16
  %19 = tail call noalias dereferenceable_or_null(400) ptr @malloc(i64 noundef 400) #15
  %20 = getelementptr inbounds nuw i8, ptr %17, i64 8
  store ptr %19, ptr %20, align 8, !tbaa !17
  %21 = getelementptr inbounds nuw i8, ptr %4, i64 32
  store ptr %17, ptr %21, align 8, !tbaa !20
  %22 = tail call noalias dereferenceable_or_null(16) ptr @malloc(i64 noundef 16) #15
  %23 = getelementptr inbounds nuw i8, ptr %22, i64 4
  store i32 0, ptr %23, align 4, !tbaa !12
  store i32 100, ptr %22, align 8, !tbaa !16
  %24 = tail call noalias dereferenceable_or_null(400) ptr @malloc(i64 noundef 400) #15
  %25 = getelementptr inbounds nuw i8, ptr %22, i64 8
  store ptr %24, ptr %25, align 8, !tbaa !17
  %26 = getelementptr inbounds nuw i8, ptr %4, i64 40
  store ptr %22, ptr %26, align 8, !tbaa !21
  %27 = tail call noalias dereferenceable_or_null(16) ptr @malloc(i64 noundef 16) #15
  %28 = getelementptr inbounds nuw i8, ptr %27, i64 4
  store i32 0, ptr %28, align 4, !tbaa !12
  store i32 100, ptr %27, align 8, !tbaa !16
  %29 = tail call noalias dereferenceable_or_null(400) ptr @malloc(i64 noundef 400) #15
  %30 = getelementptr inbounds nuw i8, ptr %27, i64 8
  store ptr %29, ptr %30, align 8, !tbaa !17
  %31 = getelementptr inbounds nuw i8, ptr %4, i64 48
  store ptr %27, ptr %31, align 8, !tbaa !22
  %32 = tail call noalias dereferenceable_or_null(16) ptr @malloc(i64 noundef 16) #15
  %33 = getelementptr inbounds nuw i8, ptr %32, i64 4
  store i32 0, ptr %33, align 4, !tbaa !12
  store i32 100, ptr %32, align 8, !tbaa !16
  %34 = tail call noalias dereferenceable_or_null(400) ptr @malloc(i64 noundef 400) #15
  %35 = getelementptr inbounds nuw i8, ptr %32, i64 8
  store ptr %34, ptr %35, align 8, !tbaa !17
  %36 = getelementptr inbounds nuw i8, ptr %4, i64 56
  store ptr %32, ptr %36, align 8, !tbaa !23
  %37 = tail call noalias dereferenceable_or_null(16) ptr @malloc(i64 noundef 16) #15
  %38 = getelementptr inbounds nuw i8, ptr %37, i64 4
  store i32 0, ptr %38, align 4, !tbaa !12
  store i32 100, ptr %37, align 8, !tbaa !16
  %39 = tail call noalias dereferenceable_or_null(400) ptr @malloc(i64 noundef 400) #15
  %40 = getelementptr inbounds nuw i8, ptr %37, i64 8
  store ptr %39, ptr %40, align 8, !tbaa !17
  %41 = getelementptr inbounds nuw i8, ptr %4, i64 64
  store ptr %37, ptr %41, align 8, !tbaa !24
  %42 = tail call noalias dereferenceable_or_null(16) ptr @malloc(i64 noundef 16) #15
  %43 = getelementptr inbounds nuw i8, ptr %42, i64 4
  store i32 0, ptr %43, align 4, !tbaa !12
  store i32 100, ptr %42, align 8, !tbaa !16
  %44 = tail call noalias dereferenceable_or_null(400) ptr @malloc(i64 noundef 400) #15
  %45 = getelementptr inbounds nuw i8, ptr %42, i64 8
  store ptr %44, ptr %45, align 8, !tbaa !17
  %46 = getelementptr inbounds nuw i8, ptr %4, i64 72
  store ptr %42, ptr %46, align 8, !tbaa !25
  %47 = getelementptr inbounds nuw i8, ptr %4, i64 80
  store ptr %0, ptr %47, align 8, !tbaa !26
  ret ptr %4
}